; Function Attrs: mustprogress uwtable
define void @_ZN6google8protobuf8internal14WireFormatLite11WriteUInt64EimPNS0_2io17CodedOutputStreamE(i32 noundef %0, i64 noundef %1, ptr noundef %2) local_unnamed_addr #3 align 2 {
  %4 = shl i32 %0, 3
  %5 = getelementptr inbounds i8, ptr %2, i64 64
  %6 = load ptr, ptr %5, align 8
  %7 = load ptr, ptr %2, align 8
  %.not.i.i.i = icmp ugt ptr %7, %6
  br i1 %.not.i.i.i, label %_ZN6google8protobuf2io19EpsCopyOutputStream11EnsureSpaceEPh.exit.i.i, label %8

8:                                                ; preds = %3
  %9 = tail call noundef ptr @_ZN6google8protobuf2io19EpsCopyOutputStream19EnsureSpaceFallbackEPh(ptr noundef nonnull align 8 dereferenceable(59) %2, ptr noundef %6)
  br label %_ZN6google8protobuf2io19EpsCopyOutputStream11EnsureSpaceEPh.exit.i.i

_ZN6google8protobuf2io19EpsCopyOutputStream11EnsureSpaceEPh.exit.i.i: ; preds = %8, %3
  %.0.i.i.i = phi ptr [ %9, %8 ], [ %6, %3 ]
  %10 = icmp ult i32 %4, 128
  %11 = trunc i32 %4 to i8
  br i1 %10, label %12, label %14

12:                                               ; preds = %_ZN6google8protobuf2io19EpsCopyOutputStream11EnsureSpaceEPh.exit.i.i
  store i8 %11, ptr %.0.i.i.i, align 1
  %13 = getelementptr inbounds i8, ptr %.0.i.i.i, i64 1
  br label %_ZN6google8protobuf2io17CodedOutputStream8WriteTagEj.exit

14:                                               ; preds = %_ZN6google8protobuf2io19EpsCopyOutputStream11EnsureSpaceEPh.exit.i.i
  %15 = or i8 %11, -128
  store i8 %15, ptr %.0.i.i.i, align 1
  %16 = lshr i32 %4, 7
  %17 = icmp ult i32 %4, 16384
  br i1 %17, label %18, label %22

18:                                               ; preds = %14
  %19 = trunc nuw nsw i32 %16 to i8
  %20 = getelementptr inbounds i8, ptr %.0.i.i.i, i64 1
  store i8 %19, ptr %20, align 1
  %21 = getelementptr inbounds i8, ptr %.0.i.i.i, i64 2
  br label %_ZN6google8protobuf2io17CodedOutputStream8WriteTagEj.exit

22:                                               ; preds = %14
  %23 = getelementptr inbounds i8, ptr %.0.i.i.i, i64 1
  br label %24

24:                                               ; preds = %24, %22
  %.023.i.i.i = phi ptr [ %23, %22 ], [ %28, %24 ]
  %.022.i.i.i = phi i32 [ %16, %22 ], [ %27, %24 ]
  %25 = trunc i32 %.022.i.i.i to i8
  %26 = or i8 %25, -128
  store i8 %26, ptr %.023.i.i.i, align 1
  %27 = lshr i32 %.022.i.i.i, 7
  %28 = getelementptr inbounds i8, ptr %.023.i.i.i, i64 1
  %29 = icmp ugt i32 %.022.i.i.i, 16383
  br i1 %29, label %24, label %30, !llvm.loop !6

30:                                               ; preds = %24
  %31 = trunc nuw nsw i32 %27 to i8
  %32 = getelementptr inbounds i8, ptr %.023.i.i.i, i64 2
  store i8 %31, ptr %28, align 1
  br label %_ZN6google8protobuf2io17CodedOutputStream8WriteTagEj.exit

_ZN6google8protobuf2io17CodedOutputStream8WriteTagEj.exit: ; preds = %12, %18, %30
  %.0.i1.i.i = phi ptr [ %13, %12 ], [ %21, %18 ], [ %32, %30 ]
  store ptr %.0.i1.i.i, ptr %5, align 8
  %33 = load ptr, ptr %2, align 8
  %.not.i.i = icmp ugt ptr %33, %.0.i1.i.i
  br i1 %.not.i.i, label %_ZN6google8protobuf2io19EpsCopyOutputStream11EnsureSpaceEPh.exit.i, label %34

34:                                               ; preds = %_ZN6google8protobuf2io17CodedOutputStream8WriteTagEj.exit
  %35 = tail call noundef ptr @_ZN6google8protobuf2io19EpsCopyOutputStream19EnsureSpaceFallbackEPh(ptr noundef nonnull align 8 dereferenceable(59) %2, ptr noundef nonnull %.0.i1.i.i)
  br label %_ZN6google8protobuf2io19EpsCopyOutputStream11EnsureSpaceEPh.exit.i

_ZN6google8protobuf2io19EpsCopyOutputStream11EnsureSpaceEPh.exit.i: ; preds = %34, %_ZN6google8protobuf2io17CodedOutputStream8WriteTagEj.exit
  %.0.i.i = phi ptr [ %35, %34 ], [ %.0.i1.i.i, %_ZN6google8protobuf2io17CodedOutputStream8WriteTagEj.exit ]
  %36 = icmp ult i64 %1, 128
  %37 = trunc i64 %1 to i8
  br i1 %36, label %38, label %40

38:                                               ; preds = %_ZN6google8protobuf2io19EpsCopyOutputStream11EnsureSpaceEPh.exit.i
  store i8 %37, ptr %.0.i.i, align 1
  %39 = getelementptr inbounds i8, ptr %.0.i.i, i64 1
  br label %_ZN6google8protobuf2io17CodedOutputStream13WriteVarint64Em.exit

40:                                               ; preds = %_ZN6google8protobuf2io19EpsCopyOutputStream11EnsureSpaceEPh.exit.i
  %41 = or i8 %37, -128
  store i8 %41, ptr %.0.i.i, align 1
  %42 = lshr i64 %1, 7
  %43 = icmp ult i64 %1, 16384
  br i1 %43, label %44, label %48

44:                                               ; preds = %40
  %45 = trunc nuw nsw i64 %42 to i8
  %46 = getelementptr inbounds i8, ptr %.0.i.i, i64 1
  store i8 %45, ptr %46, align 1
  %47 = getelementptr inbounds i8, ptr %.0.i.i, i64 2
  br label %_ZN6google8protobuf2io17CodedOutputStream13WriteVarint64Em.exit

48:                                               ; preds = %40
  %49 = getelementptr inbounds i8, ptr %.0.i.i, i64 1
  br label %50

50:                                               ; preds = %50, %48
  %.023.i.i = phi ptr [ %49, %48 ], [ %54, %50 ]
  %.022.i.i = phi i64 [ %42, %48 ], [ %53, %50 ]
  %51 = trunc i64 %.022.i.i to i8
  %52 = or i8 %51, -128
  store i8 %52, ptr %.023.i.i, align 1
  %53 = lshr i64 %.022.i.i, 7
  %54 = getelementptr inbounds i8, ptr %.023.i.i, i64 1
  %55 = icmp ugt i64 %.022.i.i, 16383
  br i1 %55, label %50, label %56, !llvm.loop !7

56:                                               ; preds = %50
  %57 = trunc nuw nsw i64 %53 to i8
  %58 = getelementptr inbounds i8, ptr %.023.i.i, i64 2
  store i8 %57, ptr %54, align 1
  br label %_ZN6google8protobuf2io17CodedOutputStream13WriteVarint64Em.exit

_ZN6google8protobuf2io17CodedOutputStream13WriteVarint64Em.exit: ; preds = %38, %44, %56
  %.0.i1.i = phi ptr [ %39, %38 ], [ %47, %44 ], [ %58, %56 ]
  store ptr %.0.i1.i, ptr %5, align 8
  ret void
}